; ModuleID = '57/228.c'
source_filename = "57/228.c"
target datalayout = "e-m:e-p270:32:32-p271:32:32-p272:64:64-i64:64-f80:128-n8:16:32:64-S128"
target triple = "x86_64-pc-linux-gnu"

@.str = private unnamed_addr constant [3 x i8] c"%d\00", align 1
@.str.1 = private unnamed_addr constant [2 x i8] c"\0A\00", align 1
@.str.2 = private unnamed_addr constant [3 x i8] c"%s\00", align 1
@.str.3 = private unnamed_addr constant [3 x i8] c"%c\00", align 1

; Function Attrs: noinline nounwind uwtable
define dso_local i32 @main() #0 {
  %1 = alloca i32, align 4
  %2 = alloca i32, align 4
  %3 = alloca i32, align 4
  %4 = alloca i32, align 4
  %5 = alloca i32, align 4
  %6 = alloca [50 x [15 x i8]], align 16
  store i32 0, i32* %1, align 4
  %7 = bitcast [50 x [15 x i8]]* %6 to i8*
  call void @llvm.memset.p0i8.i64(i8* align 16 %7, i8 0, i64 750, i1 false)
  %8 = call i32 (i8*, ...) @__isoc99_scanf(i8* getelementptr inbounds ([3 x i8], [3 x i8]* @.str, i64 0, i64 0), i32* %2)
  %9 = call i32 (i8*, ...) @printf(i8* getelementptr inbounds ([2 x i8], [2 x i8]* @.str.1, i64 0, i64 0))
  store i32 0, i32* %3, align 4
  br label %10

10:                                               ; preds = %21, %0
  %11 = load i32, i32* %3, align 4
  %12 = load i32, i32* %2, align 4
  %13 = icmp slt i32 %11, %12
  br i1 %13, label %14, label %24

14:                                               ; preds = %10
  %15 = load i32, i32* %3, align 4
  %16 = sext i32 %15 to i64
  %17 = getelementptr inbounds [50 x [15 x i8]], [50 x [15 x i8]]* %6, i64 0, i64 %16
  %18 = getelementptr inbounds [15 x i8], [15 x i8]* %17, i64 0, i64 0
  %19 = call i32 (i8*, ...) @__isoc99_scanf(i8* getelementptr inbounds ([3 x i8], [3 x i8]* @.str.2, i64 0, i64 0), i8* %18)
  %20 = call i32 (i8*, ...) @printf(i8* getelementptr inbounds ([2 x i8], [2 x i8]* @.str.1, i64 0, i64 0))
  br label %21

21:                                               ; preds = %14
  %22 = load i32, i32* %3, align 4
  %23 = add nsw i32 %22, 1
  store i32 %23, i32* %3, align 4
  br label %10

24:                                               ; preds = %10
  store i32 0, i32* %3, align 4
  br label %25

25:                                               ; preds = %198, %24
  %26 = load i32, i32* %3, align 4
  %27 = load i32, i32* %2, align 4
  %28 = icmp slt i32 %26, %27
  br i1 %28, label %29, label %201

29:                                               ; preds = %25
  %30 = load i32, i32* %3, align 4
  %31 = sext i32 %30 to i64
  %32 = getelementptr inbounds [50 x [15 x i8]], [50 x [15 x i8]]* %6, i64 0, i64 %31
  %33 = getelementptr inbounds [15 x i8], [15 x i8]* %32, i64 0, i64 0
  %34 = call i64 @strlen(i8* %33) #4
  %35 = trunc i64 %34 to i32
  store i32 %35, i32* %5, align 4
  %36 = load i32, i32* %3, align 4
  %37 = sext i32 %36 to i64
  %38 = getelementptr inbounds [50 x [15 x i8]], [50 x [15 x i8]]* %6, i64 0, i64 %37
  %39 = load i32, i32* %5, align 4
  %40 = sub nsw i32 %39, 1
  %41 = sext i32 %40 to i64
  %42 = getelementptr inbounds [15 x i8], [15 x i8]* %38, i64 0, i64 %41
  %43 = load i8, i8* %42, align 1
  %44 = sext i8 %43 to i32
  %45 = icmp eq i32 %44, 114
  br i1 %45, label %46, label %78

46:                                               ; preds = %29
  %47 = load i32, i32* %3, align 4
  %48 = sext i32 %47 to i64
  %49 = getelementptr inbounds [50 x [15 x i8]], [50 x [15 x i8]]* %6, i64 0, i64 %48
  %50 = load i32, i32* %5, align 4
  %51 = sub nsw i32 %50, 2
  %52 = sext i32 %51 to i64
  %53 = getelementptr inbounds [15 x i8], [15 x i8]* %49, i64 0, i64 %52
  %54 = load i8, i8* %53, align 1
  %55 = sext i8 %54 to i32
  %56 = icmp eq i32 %55, 101
  br i1 %56, label %57, label %78

57:                                               ; preds = %46
  store i32 0, i32* %4, align 4
  br label %58

58:                                               ; preds = %73, %57
  %59 = load i32, i32* %4, align 4
  %60 = load i32, i32* %5, align 4
  %61 = sub nsw i32 %60, 2
  %62 = icmp slt i32 %59, %61
  br i1 %62, label %63, label %76

63:                                               ; preds = %58
  %64 = load i32, i32* %3, align 4
  %65 = sext i32 %64 to i64
  %66 = getelementptr inbounds [50 x [15 x i8]], [50 x [15 x i8]]* %6, i64 0, i64 %65
  %67 = load i32, i32* %4, align 4
  %68 = sext i32 %67 to i64
  %69 = getelementptr inbounds [15 x i8], [15 x i8]* %66, i64 0, i64 %68
  %70 = load i8, i8* %69, align 1
  %71 = sext i8 %70 to i32
  %72 = call i32 (i8*, ...) @printf(i8* getelementptr inbounds ([3 x i8], [3 x i8]* @.str.3, i64 0, i64 0), i32 %71)
  br label %73

73:                                               ; preds = %63
  %74 = load i32, i32* %4, align 4
  %75 = add nsw i32 %74, 1
  store i32 %75, i32* %4, align 4
  br label %58

76:                                               ; preds = %58
  %77 = call i32 (i8*, ...) @printf(i8* getelementptr inbounds ([2 x i8], [2 x i8]* @.str.1, i64 0, i64 0))
  br label %196

78:                                               ; preds = %46, %29
  %79 = load i32, i32* %3, align 4
  %80 = sext i32 %79 to i64
  %81 = getelementptr inbounds [50 x [15 x i8]], [50 x [15 x i8]]* %6, i64 0, i64 %80
  %82 = load i32, i32* %5, align 4
  %83 = sub nsw i32 %82, 1
  %84 = sext i32 %83 to i64
  %85 = getelementptr inbounds [15 x i8], [15 x i8]* %81, i64 0, i64 %84
  %86 = load i8, i8* %85, align 1
  %87 = sext i8 %86 to i32
  %88 = icmp eq i32 %87, 121
  br i1 %88, label %89, label %121

89:                                               ; preds = %78
  %90 = load i32, i32* %3, align 4
  %91 = sext i32 %90 to i64
  %92 = getelementptr inbounds [50 x [15 x i8]], [50 x [15 x i8]]* %6, i64 0, i64 %91
  %93 = load i32, i32* %5, align 4
  %94 = sub nsw i32 %93, 2
  %95 = sext i32 %94 to i64
  %96 = getelementptr inbounds [15 x i8], [15 x i8]* %92, i64 0, i64 %95
  %97 = load i8, i8* %96, align 1
  %98 = sext i8 %97 to i32
  %99 = icmp eq i32 %98, 108
  br i1 %99, label %100, label %121

100:                                              ; preds = %89
  store i32 0, i32* %4, align 4
  br label %101

101:                                              ; preds = %116, %100
  %102 = load i32, i32* %4, align 4
  %103 = load i32, i32* %5, align 4
  %104 = sub nsw i32 %103, 2
  %105 = icmp slt i32 %102, %104
  br i1 %105, label %106, label %119

106:                                              ; preds = %101
  %107 = load i32, i32* %3, align 4
  %108 = sext i32 %107 to i64
  %109 = getelementptr inbounds [50 x [15 x i8]], [50 x [15 x i8]]* %6, i64 0, i64 %108
  %110 = load i32, i32* %4, align 4
  %111 = sext i32 %110 to i64
  %112 = getelementptr inbounds [15 x i8], [15 x i8]* %109, i64 0, i64 %111
  %113 = load i8, i8* %112, align 1
  %114 = sext i8 %113 to i32
  %115 = call i32 (i8*, ...) @printf(i8* getelementptr inbounds ([3 x i8], [3 x i8]* @.str.3, i64 0, i64 0), i32 %114)
  br label %116

116:                                              ; preds = %106
  %117 = load i32, i32* %4, align 4
  %118 = add nsw i32 %117, 1
  store i32 %118, i32* %4, align 4
  br label %101

119:                                              ; preds = %101
  %120 = call i32 (i8*, ...) @printf(i8* getelementptr inbounds ([2 x i8], [2 x i8]* @.str.1, i64 0, i64 0))
  br label %195

121:                                              ; preds = %89, %78
  %122 = load i32, i32* %3, align 4
  %123 = sext i32 %122 to i64
  %124 = getelementptr inbounds [50 x [15 x i8]], [50 x [15 x i8]]* %6, i64 0, i64 %123
  %125 = load i32, i32* %5, align 4
  %126 = sub nsw i32 %125, 1
  %127 = sext i32 %126 to i64
  %128 = getelementptr inbounds [15 x i8], [15 x i8]* %124, i64 0, i64 %127
  %129 = load i8, i8* %128, align 1
  %130 = sext i8 %129 to i32
  %131 = icmp eq i32 %130, 103
  br i1 %131, label %132, label %175

132:                                              ; preds = %121
  %133 = load i32, i32* %3, align 4
  %134 = sext i32 %133 to i64
  %135 = getelementptr inbounds [50 x [15 x i8]], [50 x [15 x i8]]* %6, i64 0, i64 %134
  %136 = load i32, i32* %5, align 4
  %137 = sub nsw i32 %136, 2
  %138 = sext i32 %137 to i64
  %139 = getelementptr inbounds [15 x i8], [15 x i8]* %135, i64 0, i64 %138
  %140 = load i8, i8* %139, align 1
  %141 = sext i8 %140 to i32
  %142 = icmp eq i32 %141, 110
  br i1 %142, label %143, label %175

143:                                              ; preds = %132
  %144 = load i32, i32* %3, align 4
  %145 = sext i32 %144 to i64
  %146 = getelementptr inbounds [50 x [15 x i8]], [50 x [15 x i8]]* %6, i64 0, i64 %145
  %147 = load i32, i32* %5, align 4
  %148 = sub nsw i32 %147, 3
  %149 = sext i32 %148 to i64
  %150 = getelementptr inbounds [15 x i8], [15 x i8]* %146, i64 0, i64 %149
  %151 = load i8, i8* %150, align 1
  %152 = sext i8 %151 to i32
  %153 = icmp eq i32 %152, 105
  br i1 %153, label %154, label %175

154:                                              ; preds = %143
  store i32 0, i32* %4, align 4
  br label %155

155:                                              ; preds = %170, %154
  %156 = load i32, i32* %4, align 4
  %157 = load i32, i32* %5, align 4
  %158 = sub nsw i32 %157, 3
  %159 = icmp slt i32 %156, %158
  br i1 %159, label %160, label %173

160:                                              ; preds = %155
  %161 = load i32, i32* %3, align 4
  %162 = sext i32 %161 to i64
  %163 = getelementptr inbounds [50 x [15 x i8]], [50 x [15 x i8]]* %6, i64 0, i64 %162
  %164 = load i32, i32* %4, align 4
  %165 = sext i32 %164 to i64
  %166 = getelementptr inbounds [15 x i8], [15 x i8]* %163, i64 0, i64 %165
  %167 = load i8, i8* %166, align 1
  %168 = sext i8 %167 to i32
  %169 = call i32 (i8*, ...) @printf(i8* getelementptr inbounds ([3 x i8], [3 x i8]* @.str.3, i64 0, i64 0), i32 %168)
  br label %170

170:                                              ; preds = %160
  %171 = load i32, i32* %4, align 4
  %172 = add nsw i32 %171, 1
  store i32 %172, i32* %4, align 4
  br label %155

173:                                              ; preds = %155
  %174 = call i32 (i8*, ...) @printf(i8* getelementptr inbounds ([2 x i8], [2 x i8]* @.str.1, i64 0, i64 0))
  br label %194

175:                                              ; preds = %143, %132, %121
  store i32 0, i32* %4, align 4
  br label %176

176:                                              ; preds = %190, %175
  %177 = load i32, i32* %4, align 4
  %178 = load i32, i32* %5, align 4
  %179 = icmp slt i32 %177, %178
  br i1 %179, label %180, label %193

180:                                              ; preds = %176
  %181 = load i32, i32* %3, align 4
  %182 = sext i32 %181 to i64
  %183 = getelementptr inbounds [50 x [15 x i8]], [50 x [15 x i8]]* %6, i64 0, i64 %182
  %184 = load i32, i32* %4, align 4
  %185 = sext i32 %184 to i64
  %186 = getelementptr inbounds [15 x i8], [15 x i8]* %183, i64 0, i64 %185
  %187 = load i8, i8* %186, align 1
  %188 = sext i8 %187 to i32
  %189 = call i32 (i8*, ...) @printf(i8* getelementptr inbounds ([3 x i8], [3 x i8]* @.str.3, i64 0, i64 0), i32 %188)
  br label %190

190:                                              ; preds = %180
  %191 = load i32, i32* %4, align 4
  %192 = add nsw i32 %191, 1
  store i32 %192, i32* %4, align 4
  br label %176

193:                                              ; preds = %176
  br label %194

194:                                              ; preds = %193, %173
  br label %195

195:                                              ; preds = %194, %119
  br label %196

196:                                              ; preds = %195, %76
  %197 = call i32 (i8*, ...) @printf(i8* getelementptr inbounds ([2 x i8], [2 x i8]* @.str.1, i64 0, i64 0))
  br label %198

198:                                              ; preds = %196
  %199 = load i32, i32* %3, align 4
  %200 = add nsw i32 %199, 1
  store i32 %200, i32* %3, align 4
  br label %25

201:                                              ; preds = %25
  ret i32 0
}

; Function Attrs: argmemonly nounwind willreturn
declare void @llvm.memset.p0i8.i64(i8* nocapture writeonly, i8, i64, i1 immarg) #1

declare dso_local i32 @__isoc99_scanf(i8*, ...) #2

declare dso_local i32 @printf(i8*, ...) #2

; Function Attrs: nounwind readonly
declare dso_local i64 @strlen(i8*) #3


!llvm.module.flags = !{!0}
!llvm.ident = !{!1}

!0 = !{i32 1, !"wchar_size", i32 4}
!1 = !{!"clang version 10.0.0-4ubuntu1 "}
